target datalayout = "e-m:e-p270:32:32-p271:32:32-p272:64:64-i64:64-i128:128-f80:128-n8:16:32:64-S128"
target triple = "x86_64-pc-linux-gnu"

%struct.nghttp2_buf = type { ptr, ptr, ptr, ptr, ptr }
%struct.nghttp2_bufs = type { ptr, ptr, ptr, i64, i64, i64, i64, i64 }
%struct.nghttp2_buf_chain = type { ptr, %struct.nghttp2_buf }
%struct.nghttp2_vec = type { ptr, i64 }

; Function Attrs: nounwind uwtable
define hidden void @nghttp2_buf_wrap_init(ptr noundef %0, ptr noundef %1, i64 noundef %2) #0 {
  %4 = alloca ptr, align 8
  %5 = alloca ptr, align 8
  %6 = alloca i64, align 8
  store ptr %0, ptr %4, align 8, !tbaa !3
  store ptr %1, ptr %5, align 8, !tbaa !16
  store i64 %2, ptr %6, align 8, !tbaa !14
  %7 = load ptr, ptr %5, align 8, !tbaa !16
  %8 = load ptr, ptr %4, align 8, !tbaa !3
  %9 = getelementptr inbounds nuw %struct.nghttp2_buf, ptr %8, i32 0, i32 1
  store ptr %7, ptr %9, align 8, !tbaa !10
  %10 = load ptr, ptr %4, align 8, !tbaa !3
  %11 = getelementptr inbounds nuw %struct.nghttp2_buf, ptr %10, i32 0, i32 4
  store ptr %7, ptr %11, align 8, !tbaa !13
  %12 = load ptr, ptr %4, align 8, !tbaa !3
  %13 = getelementptr inbounds nuw %struct.nghttp2_buf, ptr %12, i32 0, i32 3
  store ptr %7, ptr %13, align 8, !tbaa !12
  %14 = load ptr, ptr %4, align 8, !tbaa !3
  %15 = getelementptr inbounds nuw %struct.nghttp2_buf, ptr %14, i32 0, i32 2
  store ptr %7, ptr %15, align 8, !tbaa !11
  %16 = load ptr, ptr %4, align 8, !tbaa !3
  %17 = getelementptr inbounds nuw %struct.nghttp2_buf, ptr %16, i32 0, i32 0
  store ptr %7, ptr %17, align 8, !tbaa !7
  %18 = load i64, ptr %6, align 8, !tbaa !14
  %19 = icmp ne i64 %18, 0
  br i1 %19, label %20, label %26

20:                                               ; preds = %3
  %21 = load i64, ptr %6, align 8, !tbaa !14
  %22 = load ptr, ptr %4, align 8, !tbaa !3
  %23 = getelementptr inbounds nuw %struct.nghttp2_buf, ptr %22, i32 0, i32 1
  %24 = load ptr, ptr %23, align 8, !tbaa !10
  %25 = getelementptr inbounds nuw i8, ptr %24, i64 %21
  store ptr %25, ptr %23, align 8, !tbaa !10
  br label %26

26:                                               ; preds = %20, %3
  ret void
}

; Function Attrs: nounwind uwtable
define hidden i32 @nghttp2_bufs_wrap_init(ptr noundef %0, ptr noundef %1, i64 noundef %2, ptr noundef %3) #0 {
  %5 = alloca i32, align 4
  %6 = alloca ptr, align 8
  %7 = alloca ptr, align 8
  %8 = alloca i64, align 8
  %9 = alloca ptr, align 8
  %10 = alloca ptr, align 8
  %11 = alloca i32, align 4
  store ptr %0, ptr %6, align 8, !tbaa !3
  store ptr %1, ptr %7, align 8, !tbaa !16
  store i64 %2, ptr %8, align 8, !tbaa !14
  store ptr %3, ptr %9, align 8, !tbaa !3
  call void @llvm.lifetime.start.p0(i64 8, ptr %10) #4
  %12 = load ptr, ptr %9, align 8, !tbaa !3
  %13 = call ptr @nghttp2_mem_malloc(ptr noundef %12, i64 noundef 48)
  store ptr %13, ptr %10, align 8, !tbaa !23
  %14 = load ptr, ptr %10, align 8, !tbaa !23
  %15 = icmp eq ptr %14, null
  br i1 %15, label %16, label %17

16:                                               ; preds = %4
  store i32 -901, ptr %5, align 4
  store i32 1, ptr %11, align 4
  br label %46

17:                                               ; preds = %4
  %18 = load ptr, ptr %10, align 8, !tbaa !23
  %19 = getelementptr inbounds nuw %struct.nghttp2_buf_chain, ptr %18, i32 0, i32 0
  store ptr null, ptr %19, align 8, !tbaa !36
  %20 = load ptr, ptr %10, align 8, !tbaa !23
  %21 = getelementptr inbounds nuw %struct.nghttp2_buf_chain, ptr %20, i32 0, i32 1
  %22 = load ptr, ptr %7, align 8, !tbaa !16
  %23 = load i64, ptr %8, align 8, !tbaa !14
  call void @nghttp2_buf_wrap_init(ptr noundef %21, ptr noundef %22, i64 noundef %23)
  %24 = load ptr, ptr %9, align 8, !tbaa !3
  %25 = load ptr, ptr %6, align 8, !tbaa !3
  %26 = getelementptr inbounds nuw %struct.nghttp2_bufs, ptr %25, i32 0, i32 2
  store ptr %24, ptr %26, align 8, !tbaa !19
  %27 = load ptr, ptr %6, align 8, !tbaa !3
  %28 = getelementptr inbounds nuw %struct.nghttp2_bufs, ptr %27, i32 0, i32 7
  store i64 0, ptr %28, align 8, !tbaa !22
  %29 = load ptr, ptr %10, align 8, !tbaa !23
  %30 = load ptr, ptr %6, align 8, !tbaa !3
  %31 = getelementptr inbounds nuw %struct.nghttp2_bufs, ptr %30, i32 0, i32 0
  store ptr %29, ptr %31, align 8, !tbaa !24
  %32 = load ptr, ptr %6, align 8, !tbaa !3
  %33 = getelementptr inbounds nuw %struct.nghttp2_bufs, ptr %32, i32 0, i32 0
  %34 = load ptr, ptr %33, align 8, !tbaa !24
  %35 = load ptr, ptr %6, align 8, !tbaa !3
  %36 = getelementptr inbounds nuw %struct.nghttp2_bufs, ptr %35, i32 0, i32 1
  store ptr %34, ptr %36, align 8, !tbaa !25
  %37 = load i64, ptr %8, align 8, !tbaa !14
  %38 = load ptr, ptr %6, align 8, !tbaa !3
  %39 = getelementptr inbounds nuw %struct.nghttp2_bufs, ptr %38, i32 0, i32 3
  store i64 %37, ptr %39, align 8, !tbaa !29
  %40 = load ptr, ptr %6, align 8, !tbaa !3
  %41 = getelementptr inbounds nuw %struct.nghttp2_bufs, ptr %40, i32 0, i32 5
  store i64 1, ptr %41, align 8, !tbaa !30
  %42 = load ptr, ptr %6, align 8, !tbaa !3
  %43 = getelementptr inbounds nuw %struct.nghttp2_bufs, ptr %42, i32 0, i32 4
  store i64 1, ptr %43, align 8, !tbaa !31
  %44 = load ptr, ptr %6, align 8, !tbaa !3
  %45 = getelementptr inbounds nuw %struct.nghttp2_bufs, ptr %44, i32 0, i32 6
  store i64 1, ptr %45, align 8, !tbaa !32
  store i32 0, ptr %5, align 4
  store i32 1, ptr %11, align 4
  br label %46

46:                                               ; preds = %17, %16
  call void @llvm.lifetime.end.p0(i64 8, ptr %10) #4
  %47 = load i32, ptr %5, align 4
  ret i32 %47
}

; Function Attrs: nounwind uwtable
define hidden i32 @nghttp2_bufs_wrap_init2(ptr noundef %0, ptr noundef %1, i64 noundef %2, ptr noundef %3) #0 {
  %5 = alloca i32, align 4
  %6 = alloca ptr, align 8
  %7 = alloca ptr, align 8
  %8 = alloca i64, align 8
  %9 = alloca ptr, align 8
  %10 = alloca i64, align 8
  %11 = alloca ptr, align 8
  %12 = alloca ptr, align 8
  %13 = alloca ptr, align 8
  %14 = alloca i32, align 4
  store ptr %0, ptr %6, align 8, !tbaa !3
  store ptr %1, ptr %7, align 8, !tbaa !3
  store i64 %2, ptr %8, align 8, !tbaa !14
  store ptr %3, ptr %9, align 8, !tbaa !3
  call void @llvm.lifetime.start.p0(i64 8, ptr %10) #4
  store i64 0, ptr %10, align 8, !tbaa !14
  call void @llvm.lifetime.start.p0(i64 8, ptr %11) #4
  call void @llvm.lifetime.start.p0(i64 8, ptr %12) #4
  call void @llvm.lifetime.start.p0(i64 8, ptr %13) #4
  store ptr %12, ptr %13, align 8, !tbaa !33
  %15 = load i64, ptr %8, align 8, !tbaa !14
  %16 = icmp eq i64 %15, 0
  br i1 %16, label %17, label %21

17:                                               ; preds = %4
  %18 = load ptr, ptr %6, align 8, !tbaa !3
  %19 = load ptr, ptr %9, align 8, !tbaa !3
  %20 = call i32 @nghttp2_bufs_wrap_init(ptr noundef %18, ptr noundef null, i64 noundef 0, ptr noundef %19)
  store i32 %20, ptr %5, align 4
  store i32 1, ptr %14, align 4
  br label %84

21:                                               ; preds = %4
  %22 = load ptr, ptr %9, align 8, !tbaa !3
  %23 = load i64, ptr %8, align 8, !tbaa !14
  %24 = mul i64 48, %23
  %25 = call ptr @nghttp2_mem_malloc(ptr noundef %22, i64 noundef %24)
  store ptr %25, ptr %12, align 8, !tbaa !23
  %26 = load ptr, ptr %12, align 8, !tbaa !23
  %27 = icmp eq ptr %26, null
  br i1 %27, label %28, label %29

28:                                               ; preds = %21
  store i32 -901, ptr %5, align 4
  store i32 1, ptr %14, align 4
  br label %84

29:                                               ; preds = %21
  store i64 0, ptr %10, align 8, !tbaa !14
  br label %30

30:                                               ; preds = %56, %29
  %31 = load i64, ptr %10, align 8, !tbaa !14
  %32 = load i64, ptr %8, align 8, !tbaa !14
  %33 = icmp ult i64 %31, %32
  br i1 %33, label %34, label %59

34:                                               ; preds = %30
  %35 = load ptr, ptr %12, align 8, !tbaa !23
  %36 = load i64, ptr %10, align 8, !tbaa !14
  %37 = getelementptr inbounds nuw %struct.nghttp2_buf_chain, ptr %35, i64 %36
  store ptr %37, ptr %11, align 8, !tbaa !23
  %38 = load ptr, ptr %11, align 8, !tbaa !23
  %39 = getelementptr inbounds nuw %struct.nghttp2_buf_chain, ptr %38, i32 0, i32 0
  store ptr null, ptr %39, align 8, !tbaa !36
  %40 = load ptr, ptr %11, align 8, !tbaa !23
  %41 = getelementptr inbounds nuw %struct.nghttp2_buf_chain, ptr %40, i32 0, i32 1
  %42 = load ptr, ptr %7, align 8, !tbaa !3
  %43 = load i64, ptr %10, align 8, !tbaa !14
  %44 = getelementptr inbounds nuw %struct.nghttp2_vec, ptr %42, i64 %43
  %45 = getelementptr inbounds nuw %struct.nghttp2_vec, ptr %44, i32 0, i32 0
  %46 = load ptr, ptr %45, align 8, !tbaa !39
  %47 = load ptr, ptr %7, align 8, !tbaa !3
  %48 = load i64, ptr %10, align 8, !tbaa !14
  %49 = getelementptr inbounds nuw %struct.nghttp2_vec, ptr %47, i64 %48
  %50 = getelementptr inbounds nuw %struct.nghttp2_vec, ptr %49, i32 0, i32 1
  %51 = load i64, ptr %50, align 8, !tbaa !41
  call void @nghttp2_buf_wrap_init(ptr noundef %41, ptr noundef %46, i64 noundef %51)
  %52 = load ptr, ptr %11, align 8, !tbaa !23
  %53 = load ptr, ptr %13, align 8, !tbaa !33
  store ptr %52, ptr %53, align 8, !tbaa !23
  %54 = load ptr, ptr %11, align 8, !tbaa !23
  %55 = getelementptr inbounds nuw %struct.nghttp2_buf_chain, ptr %54, i32 0, i32 0
  store ptr %55, ptr %13, align 8, !tbaa !33
  br label %56

56:                                               ; preds = %34
  %57 = load i64, ptr %10, align 8, !tbaa !14
  %58 = add i64 %57, 1
  store i64 %58, ptr %10, align 8, !tbaa !14
  br label %30, !llvm.loop !42

59:                                               ; preds = %30
  %60 = load ptr, ptr %9, align 8, !tbaa !3
  %61 = load ptr, ptr %6, align 8, !tbaa !3
  %62 = getelementptr inbounds nuw %struct.nghttp2_bufs, ptr %61, i32 0, i32 2
  store ptr %60, ptr %62, align 8, !tbaa !19
  %63 = load ptr, ptr %6, align 8, !tbaa !3
  %64 = getelementptr inbounds nuw %struct.nghttp2_bufs, ptr %63, i32 0, i32 7
  store i64 0, ptr %64, align 8, !tbaa !22
  %65 = load ptr, ptr %12, align 8, !tbaa !23
  %66 = load ptr, ptr %6, align 8, !tbaa !3
  %67 = getelementptr inbounds nuw %struct.nghttp2_bufs, ptr %66, i32 0, i32 0
  store ptr %65, ptr %67, align 8, !tbaa !24
  %68 = load ptr, ptr %6, align 8, !tbaa !3
  %69 = getelementptr inbounds nuw %struct.nghttp2_bufs, ptr %68, i32 0, i32 0
  %70 = load ptr, ptr %69, align 8, !tbaa !24
  %71 = load ptr, ptr %6, align 8, !tbaa !3
  %72 = getelementptr inbounds nuw %struct.nghttp2_bufs, ptr %71, i32 0, i32 1
  store ptr %70, ptr %72, align 8, !tbaa !25
  %73 = load ptr, ptr %6, align 8, !tbaa !3
  %74 = getelementptr inbounds nuw %struct.nghttp2_bufs, ptr %73, i32 0, i32 3
  store i64 0, ptr %74, align 8, !tbaa !29
  %75 = load i64, ptr %8, align 8, !tbaa !14
  %76 = load ptr, ptr %6, align 8, !tbaa !3
  %77 = getelementptr inbounds nuw %struct.nghttp2_bufs, ptr %76, i32 0, i32 5
  store i64 %75, ptr %77, align 8, !tbaa !30
  %78 = load i64, ptr %8, align 8, !tbaa !14
  %79 = load ptr, ptr %6, align 8, !tbaa !3
  %80 = getelementptr inbounds nuw %struct.nghttp2_bufs, ptr %79, i32 0, i32 4
  store i64 %78, ptr %80, align 8, !tbaa !31
  %81 = load i64, ptr %8, align 8, !tbaa !14
  %82 = load ptr, ptr %6, align 8, !tbaa !3
  %83 = getelementptr inbounds nuw %struct.nghttp2_bufs, ptr %82, i32 0, i32 6
  store i64 %81, ptr %83, align 8, !tbaa !32
  store i32 0, ptr %5, align 4
  store i32 1, ptr %14, align 4
  br label %84

84:                                               ; preds = %59, %28, %17
  call void @llvm.lifetime.end.p0(i64 8, ptr %13) #4
  call void @llvm.lifetime.end.p0(i64 8, ptr %12) #4
  call void @llvm.lifetime.end.p0(i64 8, ptr %11) #4
  call void @llvm.lifetime.end.p0(i64 8, ptr %10) #4
  %85 = load i32, ptr %5, align 4
  ret i32 %85
}